target datalayout = "e-m:e-p270:32:32-p271:32:32-p272:64:64-i64:64-i128:128-f80:128-n8:16:32:64-S128"
target triple = "x86_64-unknown-linux-gnu"

%"class.std::set.0" = type { %"class.std::_Rb_tree.1" }
%"class.std::_Rb_tree.1" = type { %"struct.std::_Rb_tree<QuantLib::Observer *, QuantLib::Observer *, std::_Identity<QuantLib::Observer *>, std::less<QuantLib::Observer *>>::_Rb_tree_impl" }
%"struct.std::_Rb_tree<QuantLib::Observer *, QuantLib::Observer *, std::_Identity<QuantLib::Observer *>, std::less<QuantLib::Observer *>>::_Rb_tree_impl" = type { [8 x i8], %"struct.std::_Rb_tree_header" }
%"struct.std::_Rb_tree_header" = type { %"struct.std::_Rb_tree_node_base", i64 }
%"struct.std::_Rb_tree_node_base" = type { i32, ptr, ptr, ptr }
%"class.std::set" = type { %"class.std::_Rb_tree" }
%"class.std::_Rb_tree" = type { %"struct.std::_Rb_tree<boost::shared_ptr<QuantLib::Observable>, boost::shared_ptr<QuantLib::Observable>, std::_Identity<boost::shared_ptr<QuantLib::Observable>>, std::less<boost::shared_ptr<QuantLib::Observable>>>::_Rb_tree_impl" }
%"struct.std::_Rb_tree<boost::shared_ptr<QuantLib::Observable>, boost::shared_ptr<QuantLib::Observable>, std::_Identity<boost::shared_ptr<QuantLib::Observable>>, std::less<boost::shared_ptr<QuantLib::Observable>>>::_Rb_tree_impl" = type { [8 x i8], %"struct.std::_Rb_tree_header" }
%"class.boost::detail::shared_count" = type { ptr }
%"class.QuantLib::Observable" = type { ptr, %"class.std::set.0" }
%"class.QuantLib::Observer" = type { ptr, %"class.std::set" }
%"class.QuantLib::CashFlow.base" = type <{ %"class.QuantLib::Event.base", %"class.QuantLib::LazyObject.base" }>
%"class.QuantLib::Event.base" = type { ptr }
%"class.QuantLib::LazyObject.base" = type <{ ptr, i8, i8, i8, i8 }>
%"class.QuantLib::Date" = type { i64 }
%"class.QuantLib::Null.32" = type { i8 }
%"class.boost::shared_ptr.37" = type { ptr, %"class.boost::detail::shared_count" }
%"class.QuantLib::IndexedCashFlow" = type <{ %"class.QuantLib::CashFlow.base", [4 x i8], double, double, %"class.boost::shared_ptr.37", %"class.QuantLib::Date", %"class.QuantLib::Date", %"class.QuantLib::Date", i8, [7 x i8], %"class.QuantLib::Observable", %"class.QuantLib::Observer" }>

@.str.14 = private unnamed_addr constant [8 x i8] c"px != 0\00", align 1
@__PRETTY_FUNCTION__._ZNK5boost10shared_ptrIN8QuantLib5IndexEEptEv = private unnamed_addr constant [127 x i8] c"typename boost::detail::sp_member_access<T>::type boost::shared_ptr<QuantLib::Index>::operator->() const [T = QuantLib::Index]\00", align 1
@.str.15 = private unnamed_addr constant [102 x i8] c"generated/home/dtcxzyw/WorkSpace/SDK/vcpkg/installed/x64-linux/include/boost/smart_ptr/shared_ptr.hpp\00", align 1

; Function Attrs: mustprogress nounwind uwtable
define linkonce_odr noundef float @_ZNSt14numeric_limitsIfE3maxEv() #1 comdat align 2 {
entry:
  ret float 0x47EFFFFFE0000000
}

; Function Attrs: mustprogress uwtable
define linkonce_odr noundef ptr @_ZNK5boost10shared_ptrIN8QuantLib5IndexEEptEv(ptr noundef nonnull align 8 dereferenceable(16) %this) #2 comdat align 2 {
entry:
  %this.addr = alloca ptr, align 8
  store ptr %this, ptr %this.addr, align 8, !tbaa !3
  %this1 = load ptr, ptr %this.addr, align 8
  %px = getelementptr inbounds nuw %"class.boost::shared_ptr.37", ptr %this1, i32 0, i32 0
  %0 = load ptr, ptr %px, align 8, !tbaa !64
  %cmp = icmp ne ptr %0, null
  %lnot = xor i1 %cmp, true
  %lnot2 = xor i1 %lnot, true
  %conv = zext i1 %lnot2 to i64
  %expval = call i64 @llvm.expect.i64(i64 %conv, i64 1)
  %tobool = icmp ne i64 %expval, 0
  br i1 %tobool, label %cond.true, label %cond.false

cond.true:                                        ; preds = %entry
  br label %cond.end

cond.false:                                       ; preds = %entry
  call void @_ZN5boost16assertion_failedEPKcS1_S1_l(ptr noundef @.str.14, ptr noundef @__PRETTY_FUNCTION__._ZNK5boost10shared_ptrIN8QuantLib5IndexEEptEv, ptr noundef @.str.15, i64 noundef 784)
  br label %cond.end

cond.end:                                         ; preds = %cond.false, %cond.true
  %px3 = getelementptr inbounds nuw %"class.boost::shared_ptr.37", ptr %this1, i32 0, i32 0
  %1 = load ptr, ptr %px3, align 8, !tbaa !64
  ret ptr %1
}

; Function Attrs: mustprogress nounwind uwtable
define linkonce_odr noundef float @_ZN8QuantLib6detail17FloatingPointNullILb1EE9nullValueEv() #1 comdat align 2 {
entry:
  %call = call noundef float @_ZNSt14numeric_limitsIfE3maxEv() #16
  ret float %call
}

; Function Attrs: mustprogress uwtable
define linkonce_odr noundef double @_ZNK8QuantLib15IndexedCashFlow10baseFixingEv(ptr noundef nonnull align 8 dereferenceable(81) %this) unnamed_addr #2 comdat align 2 {
entry:
  %this.addr = alloca ptr, align 8
  %ref.tmp = alloca %"class.QuantLib::Date", align 8
  store ptr %this, ptr %this.addr, align 8, !tbaa !3
  %this1 = load ptr, ptr %this.addr, align 8
  %index_ = getelementptr inbounds nuw %"class.QuantLib::IndexedCashFlow", ptr %this1, i32 0, i32 4
  %call = call noundef ptr @_ZNK5boost10shared_ptrIN8QuantLib5IndexEEptEv(ptr noundef nonnull align 8 dereferenceable(16) %index_)
  call void @llvm.lifetime.start.p0(i64 8, ptr %ref.tmp) #16
  %vtable = load ptr, ptr %this1, align 8, !tbaa !20
  %vfn = getelementptr inbounds ptr, ptr %vtable, i64 9
  %0 = load ptr, ptr %vfn, align 8
  %call2 = call i64 %0(ptr noundef nonnull align 8 dereferenceable(81) %this1)
  %coerce.dive = getelementptr inbounds nuw %"class.QuantLib::Date", ptr %ref.tmp, i32 0, i32 0
  store i64 %call2, ptr %coerce.dive, align 8
  %vtable3 = load ptr, ptr %call, align 8, !tbaa !20
  %vfn4 = getelementptr inbounds ptr, ptr %vtable3, i64 5
  %1 = load ptr, ptr %vfn4, align 8
  %call5 = call noundef double %1(ptr noundef nonnull align 8 dereferenceable(112) %call, ptr noundef nonnull align 8 dereferenceable(8) %ref.tmp, i1 noundef zeroext false)
  call void @llvm.lifetime.end.p0(i64 8, ptr %ref.tmp) #16
  ret double %call5
}

; Function Attrs: mustprogress uwtable
define linkonce_odr noundef double @_ZNK8QuantLib4NullIdEcvdEv(ptr noundef nonnull align 1 dereferenceable(1) %this) #2 comdat align 2 {
entry:
  %this.addr = alloca ptr, align 8
  store ptr %this, ptr %this.addr, align 8, !tbaa !3
  %call = call noundef float @_ZN8QuantLib6detail17FloatingPointNullILb1EE9nullValueEv()
  %conv = fpext float %call to double
  ret double %conv
}

; Function Attrs: mustprogress uwtable
define noundef double @_ZNK8QuantLib11CPICashFlow6amountEv(ptr noundef nonnull align 8 dereferenceable(120) %this) unnamed_addr #2 align 2 {
entry:
  %retval = alloca double, align 8
  %this.addr = alloca ptr, align 8
  %I0 = alloca double, align 8
  %ref.tmp = alloca %"class.QuantLib::Null.32", align 1
  %I1 = alloca double, align 8
  %cleanup.dest.slot = alloca i32, align 4
  store ptr %this, ptr %this.addr, align 8, !tbaa !3
  %this1 = load ptr, ptr %this.addr, align 8
  call void @llvm.lifetime.start.p0(i64 8, ptr %I0) #16
  %vtable = load ptr, ptr %this1, align 8, !tbaa !20
  %vfn = getelementptr inbounds ptr, ptr %vtable, i64 13
  %0 = load ptr, ptr %vfn, align 8
  %call = call noundef double %0(ptr noundef nonnull align 8 dereferenceable(120) %this1)
  store double %call, ptr %I0, align 8, !tbaa !31
  %1 = load double, ptr %I0, align 8, !tbaa !31
  call void @llvm.lifetime.start.p0(i64 1, ptr %ref.tmp) #16
  %call2 = call noundef double @_ZNK8QuantLib4NullIdEcvdEv(ptr noundef nonnull align 1 dereferenceable(1) %ref.tmp)
  %cmp = fcmp oeq double %1, %call2
  call void @llvm.lifetime.end.p0(i64 1, ptr %ref.tmp) #16
  br i1 %cmp, label %if.then, label %if.end

if.then:                                          ; preds = %entry
  %call3 = call noundef double @_ZNK8QuantLib15IndexedCashFlow10baseFixingEv(ptr noundef nonnull align 8 dereferenceable(81) %this1)
  store double %call3, ptr %I0, align 8, !tbaa !31
  br label %if.end

if.end:                                           ; preds = %if.then, %entry
  call void @llvm.lifetime.start.p0(i64 8, ptr %I1) #16
  %vtable4 = load ptr, ptr %this1, align 8, !tbaa !20
  %vfn5 = getelementptr inbounds ptr, ptr %vtable4, i64 14
  %2 = load ptr, ptr %vfn5, align 8
  %call6 = call noundef double %2(ptr noundef nonnull align 8 dereferenceable(120) %this1)
  store double %call6, ptr %I1, align 8, !tbaa !31
  %vtable7 = load ptr, ptr %this1, align 8, !tbaa !20
  %vfn8 = getelementptr inbounds ptr, ptr %vtable7, i64 12
  %3 = load ptr, ptr %vfn8, align 8
  %call9 = call noundef zeroext i1 %3(ptr noundef nonnull align 8 dereferenceable(81) %this1)
  br i1 %call9, label %if.then10, label %if.else

if.then10:                                        ; preds = %if.end
  %vtable11 = load ptr, ptr %this1, align 8, !tbaa !20
  %vfn12 = getelementptr inbounds ptr, ptr %vtable11, i64 8
  %4 = load ptr, ptr %vfn12, align 8
  %call13 = call noundef double %4(ptr noundef nonnull align 8 dereferenceable(81) %this1)
  %5 = load double, ptr %I1, align 8, !tbaa !31
  %6 = load double, ptr %I0, align 8, !tbaa !31
  %div = fdiv double %5, %6
  %sub = fsub double %div, 1.000000e+00
  %mul = fmul double %call13, %sub
  store double %mul, ptr %retval, align 8
  store i32 1, ptr %cleanup.dest.slot, align 4
  br label %cleanup

if.else:                                          ; preds = %if.end
  %vtable14 = load ptr, ptr %this1, align 8, !tbaa !20
  %vfn15 = getelementptr inbounds ptr, ptr %vtable14, i64 8
  %7 = load ptr, ptr %vfn15, align 8
  %call16 = call noundef double %7(ptr noundef nonnull align 8 dereferenceable(81) %this1)
  %8 = load double, ptr %I1, align 8, !tbaa !31
  %9 = load double, ptr %I0, align 8, !tbaa !31
  %div17 = fdiv double %8, %9
  %mul18 = fmul double %call16, %div17
  store double %mul18, ptr %retval, align 8
  store i32 1, ptr %cleanup.dest.slot, align 4
  br label %cleanup

cleanup:                                          ; preds = %if.else, %if.then10
  call void @llvm.lifetime.end.p0(i64 8, ptr %I1) #16
  call void @llvm.lifetime.end.p0(i64 8, ptr %I0) #16
  %10 = load double, ptr %retval, align 8
  ret double %10
}