; Function Attrs: mustprogress uwtable
define noundef double @_ZNK8QuantLib11CPICashFlow6amountEv(ptr noundef nonnull align 8 dereferenceable(120) %this) unnamed_addr #8 align 2 {
entry:
  %ref.tmp.i = alloca %"class.QuantLib::Date", align 8
  %vtable = load ptr, ptr %this, align 8, !tbaa !33
  %vfn = getelementptr inbounds i8, ptr %vtable, i64 104
  %0 = load ptr, ptr %vfn, align 8
  %call = tail call noundef double %0(ptr noundef nonnull align 8 dereferenceable(120) %this)
  %cmp = fcmp oeq double %call, 0x47EFFFFFE0000000
  br i1 %cmp, label %if.then, label %if.end

if.then:                                          ; preds = %entry
  %index_.i = getelementptr inbounds nuw i8, ptr %this, i64 40
  %1 = load ptr, ptr %index_.i, align 8, !tbaa !91
  %cmp.not.i.i = icmp eq ptr %1, null
  br i1 %cmp.not.i.i, label %cond.false.i.i, label %_ZNK8QuantLib15IndexedCashFlow10baseFixingEv.exit, !prof !129

cond.false.i.i:                                   ; preds = %if.then
  tail call void @_ZN5boost16assertion_failedEPKcS1_S1_l(ptr noundef nonnull @.str.14, ptr noundef nonnull @__PRETTY_FUNCTION__._ZNK5boost10shared_ptrIN8QuantLib5IndexEEptEv, ptr noundef nonnull @.str.15, i64 noundef 784)
  %.pre.i.i = load ptr, ptr %index_.i, align 8, !tbaa !91
  br label %_ZNK8QuantLib15IndexedCashFlow10baseFixingEv.exit

_ZNK8QuantLib15IndexedCashFlow10baseFixingEv.exit: ; preds = %if.then, %cond.false.i.i
  %2 = phi ptr [ %1, %if.then ], [ %.pre.i.i, %cond.false.i.i ]
  call void @llvm.lifetime.start.p0(i64 8, ptr nonnull %ref.tmp.i) #31
  %vtable.i = load ptr, ptr %this, align 8, !tbaa !33
  %vfn.i = getelementptr inbounds i8, ptr %vtable.i, i64 72
  %3 = load ptr, ptr %vfn.i, align 8
  %call2.i = tail call i64 %3(ptr noundef nonnull align 8 dereferenceable(81) %this)
  store i64 %call2.i, ptr %ref.tmp.i, align 8
  %vtable3.i = load ptr, ptr %2, align 8, !tbaa !33
  %vfn4.i = getelementptr inbounds i8, ptr %vtable3.i, i64 40
  %4 = load ptr, ptr %vfn4.i, align 8
  %call5.i = call noundef double %4(ptr noundef nonnull align 8 dereferenceable(112) %2, ptr noundef nonnull align 8 dereferenceable(8) %ref.tmp.i, i1 noundef zeroext false)
  call void @llvm.lifetime.end.p0(i64 8, ptr nonnull %ref.tmp.i) #31
  br label %if.end

if.end:                                           ; preds = %_ZNK8QuantLib15IndexedCashFlow10baseFixingEv.exit, %entry
  %I0.0 = phi double [ %call5.i, %_ZNK8QuantLib15IndexedCashFlow10baseFixingEv.exit ], [ %call, %entry ]
  %vtable4 = load ptr, ptr %this, align 8, !tbaa !33
  %vfn5 = getelementptr inbounds i8, ptr %vtable4, i64 112
  %5 = load ptr, ptr %vfn5, align 8
  %call6 = call noundef double %5(ptr noundef nonnull align 8 dereferenceable(120) %this)
  %vtable7 = load ptr, ptr %this, align 8, !tbaa !33
  %vfn8 = getelementptr inbounds i8, ptr %vtable7, i64 96
  %6 = load ptr, ptr %vfn8, align 8
  %call9 = call noundef zeroext i1 %6(ptr noundef nonnull align 8 dereferenceable(81) %this)
  %vtable11 = load ptr, ptr %this, align 8, !tbaa !33
  %vfn12 = getelementptr inbounds i8, ptr %vtable11, i64 64
  %7 = load ptr, ptr %vfn12, align 8
  %call13 = call noundef double %7(ptr noundef nonnull align 8 dereferenceable(81) %this)
  %div = fdiv double %call6, %I0.0
  %sub = fadd double %div, -1.000000e+00
  %div.sink = select i1 %call9, double %sub, double %div
  %mul18 = fmul double %div.sink, %call13
  ret double %mul18
}